BL51 BANKED LINKER/LOCATER V6.22                                                        06/30/2020  23:15:24  PAGE 1


BL51 BANKED LINKER/LOCATER V6.22, INVOKED BY:
D:\MDK5\C51\BIN\BL51.EXE .\Objects\STARTUP.obj, .\Objects\Step.obj, .\Objects\test.obj TO .\Objects\TEST PRINT (.\Listin
>> gs\TEST.m51) RAMSIZE (256)


MEMORY MODEL: SMALL


INPUT MODULES INCLUDED:
  .\Objects\STARTUP.obj (?C_STARTUP)
  .\Objects\Step.obj (STEP)
  .\Objects\test.obj (TEST)
  D:\MDK5\C51\LIB\C51S.LIB (?C_INIT)


LINK MAP OF MODULE:  .\Objects\TEST (?C_STARTUP)


            TYPE    BASE      LENGTH    RELOCATION   SEGMENT NAME
            -----------------------------------------------------

            * * * * * * *   D A T A   M E M O R Y   * * * * * * *
            REG     0000H     0008H     ABSOLUTE     "REG BANK 0"
            DATA    0008H     0001H     UNIT         ?DT?STEP
            IDATA   0009H     0001H     UNIT         ?STACK

            * * * * * * *   C O D E   M E M O R Y   * * * * * * *
            CODE    0000H     0003H     ABSOLUTE     
            CODE    0003H     008CH     UNIT         ?C_C51STARTUP
            CODE    008FH     0048H     UNIT         ?PR?_MOTOR_DRIVE?STEP
            CODE    00D7H     0013H     UNIT         ?PR?_DELAY1MS?STEP
            CODE    00EAH     0009H     UNIT         ?PR?MAIN?TEST
            CODE    00F3H     0004H     UNIT         ?C_INITSEG



OVERLAY MAP OF MODULE:   .\Objects\TEST (?C_STARTUP)


SEGMENT
  +--> CALLED SEGMENT
---------------------
?C_C51STARTUP
  +--> ?PR?MAIN?TEST
  +--> ?C_INITSEG

?PR?MAIN?TEST
  +--> ?PR?_MOTOR_DRIVE?STEP

?PR?_MOTOR_DRIVE?STEP
  +--> ?PR?_DELAY1MS?STEP



SYMBOL TABLE OF MODULE:  .\Objects\TEST (?C_STARTUP)

  VALUE           TYPE          NAME
  ----------------------------------
BL51 BANKED LINKER/LOCATER V6.22                                                      06/30/2020  23:15:24  PAGE 2



  -------         MODULE        ?C_STARTUP
  C:0003H         SEGMENT       ?C_C51STARTUP
  I:0009H         SEGMENT       ?STACK
  C:0000H         PUBLIC        ?C_STARTUP
  D:00E0H         SYMBOL        ACC
  D:00F0H         SYMBOL        B
  D:0083H         SYMBOL        DPH
  D:0082H         SYMBOL        DPL
  N:0000H         SYMBOL        IBPSTACK
  N:0100H         SYMBOL        IBPSTACKTOP
  N:0080H         SYMBOL        IDATALEN
  C:0006H         SYMBOL        IDATALOOP
  N:0000H         SYMBOL        PBPSTACK
  N:0100H         SYMBOL        PBPSTACKTOP
  N:0000H         SYMBOL        PDATALEN
  N:0000H         SYMBOL        PDATASTART
  N:0000H         SYMBOL        PPAGE
  N:0000H         SYMBOL        PPAGEENABLE
  D:00A0H         SYMBOL        PPAGE_SFR
  D:0081H         SYMBOL        SP
  C:0003H         SYMBOL        STARTUP1
  N:0000H         SYMBOL        XBPSTACK
  N:0000H         SYMBOL        XBPSTACKTOP
  N:0000H         SYMBOL        XDATALEN
  N:0000H         SYMBOL        XDATASTART
  C:0000H         LINE#         126
  C:0003H         LINE#         133
  C:0005H         LINE#         134
  C:0006H         LINE#         135
  C:0007H         LINE#         136
  C:0009H         LINE#         185
  C:000CH         LINE#         196
  -------         ENDMOD        ?C_STARTUP

  -------         MODULE        STEP
  C:0000H         SYMBOL        _ICE_DUMMY_
  D:0080H         PUBLIC        P0
  D:0090H         PUBLIC        P1
  D:00B0H         PUBLIC        P3
  C:00D7H         PUBLIC        _Delay1ms
  D:00A8H         PUBLIC        IE
  D:00B8H         PUBLIC        IP
  D:0098H         PUBLIC        SCON
  D:0088H         PUBLIC        TCON
  D:00C8H         PUBLIC        T2CON
  C:008FH         PUBLIC        _Motor_Drive
  D:00D0H         PUBLIC        PSW
  -------         PROC          _DELAY1MS
  D:0007H         SYMBOL        x
  -------         DO            
  D:0005H         SYMBOL        i
  D:0004H         SYMBOL        j
  D:0006H         SYMBOL        n
  -------         ENDDO         
  C:00D7H         LINE#         6
  C:00D7H         LINE#         7
BL51 BANKED LINKER/LOCATER V6.22                                                      06/30/2020  23:15:24  PAGE 3


  C:00D7H         LINE#         9
  C:00DEH         LINE#         10
  C:00DEH         LINE#         11
  C:00E0H         LINE#         12
  C:00E2H         LINE#         14
  C:00E2H         LINE#         15
  C:00E4H         LINE#         16
  C:00E6H         LINE#         17
  C:00E9H         LINE#         18
  -------         ENDPROC       _DELAY1MS
  -------         PROC          _MOTOR_DRIVE
  D:0007H         SYMBOL        x
  D:0005H         SYMBOL        y
  -------         DO            
  D:0008H         SYMBOL        n
  -------         ENDDO         
  C:008FH         LINE#         20
  C:008FH         LINE#         21
  C:008FH         LINE#         23
  C:0097H         LINE#         24
  C:0097H         LINE#         25
  C:009AH         LINE#         26
  C:00A9H         LINE#         28
  C:00ABH         LINE#         29
  C:00B3H         LINE#         30
  C:00B3H         LINE#         31
  C:00B6H         LINE#         32
  C:00C8H         LINE#         33
  C:00C8H         LINE#         34
  C:00D4H         LINE#         35
  -------         ENDPROC       _MOTOR_DRIVE
  -------         ENDMOD        STEP

  -------         MODULE        TEST
  C:0000H         SYMBOL        _ICE_DUMMY_
  D:0080H         PUBLIC        P0
  D:0090H         PUBLIC        P1
  D:00A0H         PUBLIC        P2
  D:00B0H         PUBLIC        P3
  D:00C0H         PUBLIC        P4
  D:00C8H         PUBLIC        P5
  D:00E8H         PUBLIC        P6
  D:00F8H         PUBLIC        P7
  D:00A8H         PUBLIC        IE
  D:00B8H         PUBLIC        IP
  D:00D8H         PUBLIC        CCON
  C:00EAH         PUBLIC        main
  D:0098H         PUBLIC        SCON
  D:0088H         PUBLIC        TCON
  D:00D0H         PUBLIC        PSW
  -------         PROC          MAIN
  C:00EAH         LINE#         5
  C:00EAH         LINE#         6
  C:00EAH         LINE#         7
  C:00EAH         LINE#         8
  C:00EAH         LINE#         9
  C:00F1H         LINE#         10
BL51 BANKED LINKER/LOCATER V6.22                                                      06/30/2020  23:15:24  PAGE 4


  -------         ENDPROC       MAIN
  -------         ENDMOD        TEST

Program Size: data=10.0 xdata=0 code=247
LINK/LOCATE RUN COMPLETE.  0 WARNING(S),  0 ERROR(S)
