BL51 BANKED LINKER/LOCATER V6.22                                                        06/26/2020  23:01:04  PAGE 1


BL51 BANKED LINKER/LOCATER V6.22, INVOKED BY:
D:\MDK5\C51\BIN\BL51.EXE .\Objects\STARTUP.obj, .\Objects\i2c.obj, .\Objects\test.obj, .\Objects\delay.obj, .\Objects\OL
>> ED.obj TO .\Objects\test PRINT (.\Listings\test.m51) RAMSIZE (256)


MEMORY MODEL: SMALL


INPUT MODULES INCLUDED:
  .\Objects\STARTUP.obj (?C_STARTUP)
  .\Objects\i2c.obj (I2C)
  .\Objects\test.obj (TEST)
  .\Objects\delay.obj (DELAY)
  .\Objects\OLED.obj (OLED)
  D:\MDK5\C51\LIB\C51S.LIB (?C_INIT)
  D:\MDK5\C51\LIB\C51S.LIB (?C?COPY)
  D:\MDK5\C51\LIB\C51S.LIB (?C?CLDOPTR)


LINK MAP OF MODULE:  .\Objects\test (?C_STARTUP)


            TYPE    BASE      LENGTH    RELOCATION   SEGMENT NAME
            -----------------------------------------------------

            * * * * * * *   D A T A   M E M O R Y   * * * * * * *
            REG     0000H     0008H     ABSOLUTE     "REG BANK 0"
            DATA    0008H     0019H     UNIT         _DATA_GROUP_
            DATA    0021H     0002H     UNIT         ?DT?IIC_READ_BIT?I2C
            DATA    0023H     0001H     UNIT         ?DT?TEST
            IDATA   0024H     0001H     UNIT         ?STACK

            * * * * * * *  X D A T A   M E M O R Y  * * * * * * *
            XDATA   0000H     05B0H     UNIT         ?XD?OLED

            * * * * * * *   C O D E   M E M O R Y   * * * * * * *
            CODE    0000H     0003H     ABSOLUTE     
            CODE    0003H     05B5H     UNIT         ?C_INITSEG
            CODE    05B8H     0123H     UNIT         ?C?LIB_CODE
            CODE    06DBH     00F2H     UNIT         ?PR?OLED_INIT?OLED
            CODE    07CDH     00ADH     UNIT         ?PR?_OLED_P8X16STR?OLED
            CODE    087AH     008CH     UNIT         ?C_C51STARTUP
            CODE    0906H     0053H     UNIT         ?PR?_OLED_WRITE?OLED
            CODE    0959H     0047H     UNIT         ?PR?_IIC_WRITE?I2C
            CODE    09A0H     003EH     UNIT         ?PR?_IIC_WITE_BIT?I2C
            CODE    09DEH     0036H     UNIT         ?PR?IIC_READ_BIT?I2C
            CODE    0A14H     0035H     UNIT         ?PR?IIC_ACK?I2C
            CODE    0A49H     002CH     UNIT         ?PR?MAIN?TEST
            CODE    0A75H     0026H     UNIT         ?PR?_OLED_FILL?OLED
            CODE    0A9BH     0021H     UNIT         ?PR?_OLED_SET_POS?OLED
            CODE    0ABCH     0018H     UNIT         ?PR?_DELAYX00MS?DELAY
            CODE    0AD4H     0017H     UNIT         ?PR?IIC_STOP?I2C
            CODE    0AEBH     0013H     UNIT         ?PR?IIC_START?I2C
            CODE    0AFEH     0013H     UNIT         ?PR?_DELAYXMS?DELAY
            CODE    0B11H     000EH     UNIT         ?PR?_DELAYX0US?DELAY
            CODE    0B1FH     000CH     UNIT         ?CO?TEST
            CODE    0B2BH     0006H     UNIT         ?CO?OLED

BL51 BANKED LINKER/LOCATER V6.22                                                      06/26/2020  23:01:04  PAGE 2




OVERLAY MAP OF MODULE:   .\Objects\test (?C_STARTUP)


SEGMENT                           DATA_GROUP 
  +--> CALLED SEGMENT           START    LENGTH
-----------------------------------------------
?C_C51STARTUP                   -----    -----
  +--> ?PR?MAIN?TEST
  +--> ?C_INITSEG

?PR?MAIN?TEST                   -----    -----
  +--> ?PR?_DELAYX00MS?DELAY
  +--> ?PR?OLED_INIT?OLED
  +--> ?CO?TEST
  +--> ?PR?_OLED_P8X16STR?OLED

?PR?OLED_INIT?OLED              -----    -----
  +--> ?PR?_OLED_WRITE?OLED
  +--> ?PR?_OLED_FILL?OLED
  +--> ?PR?_OLED_SET_POS?OLED

?PR?_OLED_WRITE?OLED            0011H    0008H
  +--> ?CO?OLED
  +--> ?PR?_IIC_WRITE?I2C

?PR?_IIC_WRITE?I2C              0019H    0005H
  +--> ?PR?IIC_START?I2C
  +--> ?PR?_IIC_WITE_BIT?I2C
  +--> ?PR?IIC_STOP?I2C

?PR?IIC_START?I2C               -----    -----
  +--> ?PR?_DELAYX0US?DELAY

?PR?_IIC_WITE_BIT?I2C           001EH    0002H
  +--> ?PR?_DELAYX0US?DELAY
  +--> ?PR?IIC_ACK?I2C

?PR?IIC_ACK?I2C                 0020H    0001H
  +--> ?PR?_DELAYX0US?DELAY

?PR?IIC_STOP?I2C                -----    -----
  +--> ?PR?_DELAYX0US?DELAY

?PR?_OLED_FILL?OLED             0008H    0001H
  +--> ?PR?_OLED_WRITE?OLED

?PR?_OLED_SET_POS?OLED          0010H    0001H
  +--> ?PR?_OLED_WRITE?OLED

?PR?_OLED_P8X16STR?OLED         0008H    0008H
  +--> ?PR?_OLED_SET_POS?OLED
  +--> ?PR?_OLED_WRITE?OLED



BL51 BANKED LINKER/LOCATER V6.22                                                      06/26/2020  23:01:04  PAGE 3


SYMBOL TABLE OF MODULE:  .\Objects\test (?C_STARTUP)

  VALUE           TYPE          NAME
  ----------------------------------

  -------         MODULE        ?C_STARTUP
  C:087AH         SEGMENT       ?C_C51STARTUP
  I:0024H         SEGMENT       ?STACK
  C:0000H         PUBLIC        ?C_STARTUP
  D:00E0H         SYMBOL        ACC
  D:00F0H         SYMBOL        B
  D:0083H         SYMBOL        DPH
  D:0082H         SYMBOL        DPL
  N:0000H         SYMBOL        IBPSTACK
  N:0100H         SYMBOL        IBPSTACKTOP
  N:0080H         SYMBOL        IDATALEN
  C:087DH         SYMBOL        IDATALOOP
  N:0000H         SYMBOL        PBPSTACK
  N:0100H         SYMBOL        PBPSTACKTOP
  N:0000H         SYMBOL        PDATALEN
  N:0000H         SYMBOL        PDATASTART
  N:0000H         SYMBOL        PPAGE
  N:0000H         SYMBOL        PPAGEENABLE
  D:00A0H         SYMBOL        PPAGE_SFR
  D:0081H         SYMBOL        SP
  C:087AH         SYMBOL        STARTUP1
  N:0000H         SYMBOL        XBPSTACK
  N:0000H         SYMBOL        XBPSTACKTOP
  N:0000H         SYMBOL        XDATALEN
  N:0000H         SYMBOL        XDATASTART
  C:0000H         LINE#         126
  C:087AH         LINE#         133
  C:087CH         LINE#         134
  C:087DH         LINE#         135
  C:087EH         LINE#         136
  C:0880H         LINE#         185
  C:0883H         LINE#         196
  -------         ENDMOD        ?C_STARTUP

  -------         MODULE        I2C
  C:0000H         SYMBOL        _ICE_DUMMY_
  D:0080H         PUBLIC        P0
  D:0090H         PUBLIC        P1
  D:00A0H         PUBLIC        P2
  D:00B0H         PUBLIC        P3
  D:00C0H         PUBLIC        P4
  D:00C8H         PUBLIC        P5
  D:00E8H         PUBLIC        P6
  C:0A14H         PUBLIC        IIC_ACK
  D:00F8H         PUBLIC        P7
  D:00A8H         PUBLIC        IE
  B:00C0H.0       PUBLIC        IIC_SDA
  B:00C0H.1       PUBLIC        IIC_SCL
  D:00B8H         PUBLIC        IP
  D:00D8H         PUBLIC        CCON
  D:0098H         PUBLIC        SCON
  D:0088H         PUBLIC        TCON
BL51 BANKED LINKER/LOCATER V6.22                                                      06/26/2020  23:01:04  PAGE 4


  C:09DEH         PUBLIC        IIC_Read_Bit
  C:0959H         PUBLIC        _IIC_Write
  C:0AEBH         PUBLIC        IIC_Start
  C:09A0H         PUBLIC        _IIC_Wite_Bit
  C:0AD4H         PUBLIC        IIC_Stop
  D:00D0H         PUBLIC        PSW
  -------         PROC          IIC_START
  C:0AEBH         LINE#         9
  C:0AEBH         LINE#         10
  C:0AEBH         LINE#         11
  C:0AEDH         LINE#         12
  C:0AEFH         LINE#         13
  C:0AF4H         LINE#         14
  C:0AF6H         LINE#         15
  C:0AFBH         LINE#         16
  C:0AFDH         LINE#         17
  -------         ENDPROC       IIC_START
  -------         PROC          IIC_ACK
  -------         DO            
  D:0020H         SYMBOL        count
  -------         ENDDO         
  C:0A14H         LINE#         20
  C:0A14H         LINE#         21
  C:0A14H         LINE#         22
  C:0A17H         LINE#         23
  C:0A19H         LINE#         24
  C:0A1BH         LINE#         25
  C:0A20H         LINE#         26
  C:0A22H         LINE#         27
  C:0A25H         LINE#         28
  C:0A25H         LINE#         29
  C:0A27H         LINE#         30
  C:0A2CH         LINE#         31
  C:0A35H         LINE#         32
  C:0A35H         LINE#         34
  C:0A37H         LINE#         35
  C:0A3CH         LINE#         36
  C:0A3FH         LINE#         37
  C:0A3FH         LINE#         38
  C:0A3FH         LINE#         39
  C:0A41H         LINE#         40
  C:0A46H         LINE#         41
  C:0A48H         LINE#         42
  -------         ENDPROC       IIC_ACK
  -------         PROC          IIC_STOP
  C:0AD4H         LINE#         44
  C:0AD4H         LINE#         45
  C:0AD4H         LINE#         46
  C:0AD6H         LINE#         47
  C:0AD8H         LINE#         48
  C:0ADDH         LINE#         49
  C:0ADFH         LINE#         50
  C:0AE4H         LINE#         51
  C:0AE6H         LINE#         52
  -------         ENDPROC       IIC_STOP
  -------         PROC          _IIC_WITE_BIT
  D:001EH         SYMBOL        x
BL51 BANKED LINKER/LOCATER V6.22                                                      06/26/2020  23:01:04  PAGE 5


  -------         DO            
  D:001FH         SYMBOL        n
  -------         ENDDO         
  C:09A0H         LINE#         55
  C:09A2H         LINE#         56
  C:09A2H         LINE#         58
  C:09A4H         LINE#         59
  C:09A9H         LINE#         60
  C:09ACH         LINE#         61
  C:09ACH         LINE#         62
  C:09AEH         LINE#         63
  C:09C2H         LINE#         64
  C:09C4H         LINE#         65
  C:09C9H         LINE#         66
  C:09CBH         LINE#         67
  C:09D0H         LINE#         68
  C:09DBH         LINE#         69
  -------         ENDPROC       _IIC_WITE_BIT
  -------         PROC          IIC_READ_BIT
  -------         DO            
  D:0021H         SYMBOL        n
  D:0022H         SYMBOL        m
  -------         ENDDO         
  C:09DEH         LINE#         72
  C:09DEH         LINE#         73
  C:09DEH         LINE#         75
  C:09E1H         LINE#         76
  C:09E1H         LINE#         77
  C:09E4H         LINE#         78
  C:09E9H         LINE#         79
  C:09F8H         LINE#         80
  C:09FBH         LINE#         81
  C:09FBH         LINE#         82
  C:09FEH         LINE#         83
  C:0A00H         LINE#         85
  C:0A00H         LINE#         86
  C:0A00H         LINE#         87
  C:0A00H         LINE#         88
  C:0A03H         LINE#         89
  C:0A08H         LINE#         90
  C:0A11H         LINE#         91
  C:0A13H         LINE#         92
  -------         ENDPROC       IIC_READ_BIT
  -------         PROC          _IIC_WRITE
  D:0019H         SYMBOL        x
  D:001AH         SYMBOL        y
  -------         DO            
  D:001DH         SYMBOL        n
  -------         ENDDO         
  C:0959H         LINE#         94
  C:0961H         LINE#         95
  C:0961H         LINE#         96
  C:0964H         LINE#         97
  C:0967H         LINE#         98
  C:097CH         LINE#         99
  C:0986H         LINE#         100
  C:0986H         LINE#         101
BL51 BANKED LINKER/LOCATER V6.22                                                      06/26/2020  23:01:04  PAGE 6


  C:0999H         LINE#         102
  C:099DH         LINE#         103
  -------         ENDPROC       _IIC_WRITE
  -------         ENDMOD        I2C

  -------         MODULE        TEST
  C:0000H         SYMBOL        _ICE_DUMMY_
  D:0080H         PUBLIC        P0
  D:0090H         PUBLIC        P1
  D:00A0H         PUBLIC        P2
  D:00B0H         PUBLIC        P3
  D:00C0H         PUBLIC        P4
  D:00C8H         PUBLIC        P5
  D:00E8H         PUBLIC        P6
  D:00F8H         PUBLIC        P7
  D:00A8H         PUBLIC        IE
  D:00B8H         PUBLIC        IP
  D:00D8H         PUBLIC        CCON
  C:0A49H         PUBLIC        main
  D:0098H         PUBLIC        SCON
  D:0088H         PUBLIC        TCON
  D:0023H         PUBLIC        n
  D:00D0H         PUBLIC        PSW
  -------         PROC          MAIN
  C:0A49H         LINE#         7
  C:0A49H         LINE#         8
  C:0A49H         LINE#         9
  C:0A4EH         LINE#         10
  C:0A51H         LINE#         11
  C:0A51H         LINE#         12
  C:0A51H         LINE#         13
  C:0A5DH         LINE#         14
  C:0A62H         LINE#         15
  C:0A6EH         LINE#         16
  C:0A73H         LINE#         17
  -------         ENDPROC       MAIN
  -------         ENDMOD        TEST

  -------         MODULE        DELAY
  C:0000H         SYMBOL        _ICE_DUMMY_
  C:0B11H         PUBLIC        _Delayx0us
  C:0ABCH         PUBLIC        _Delayx00ms
  C:0AFEH         PUBLIC        _Delayxms
  -------         PROC          _DELAYX0US
  D:0007H         SYMBOL        x
  -------         DO            
  D:0006H         SYMBOL        i
  -------         ENDDO         
  C:0B11H         LINE#         4
  C:0B11H         LINE#         5
  C:0B11H         LINE#         7
  C:0B17H         LINE#         8
  C:0B17H         LINE#         9
  C:0B19H         LINE#         10
  C:0B1BH         LINE#         12
  C:0B1EH         LINE#         13
  -------         ENDPROC       _DELAYX0US
BL51 BANKED LINKER/LOCATER V6.22                                                      06/26/2020  23:01:04  PAGE 7


  -------         PROC          _DELAYXMS
  D:0007H         SYMBOL        x
  -------         DO            
  D:0006H         SYMBOL        i
  D:0005H         SYMBOL        j
  -------         ENDDO         
  C:0AFEH         LINE#         15
  C:0AFEH         LINE#         16
  C:0AFEH         LINE#         18
  C:0B04H         LINE#         19
  C:0B04H         LINE#         20
  C:0B05H         LINE#         21
  C:0B07H         LINE#         22
  C:0B09H         LINE#         24
  C:0B09H         LINE#         25
  C:0B0BH         LINE#         26
  C:0B0DH         LINE#         27
  C:0B10H         LINE#         28
  -------         ENDPROC       _DELAYXMS
  -------         PROC          _DELAYX00MS
  D:0007H         SYMBOL        x
  -------         DO            
  D:0006H         SYMBOL        i
  D:0005H         SYMBOL        j
  D:0004H         SYMBOL        k
  -------         ENDDO         
  C:0ABCH         LINE#         30
  C:0ABCH         LINE#         31
  C:0ABCH         LINE#         33
  C:0AC2H         LINE#         34
  C:0AC2H         LINE#         35
  C:0AC3H         LINE#         36
  C:0AC4H         LINE#         37
  C:0AC6H         LINE#         38
  C:0AC8H         LINE#         39
  C:0ACAH         LINE#         41
  C:0ACAH         LINE#         43
  C:0ACAH         LINE#         44
  C:0ACCH         LINE#         46
  C:0ACEH         LINE#         47
  C:0AD0H         LINE#         48
  C:0AD3H         LINE#         49
  -------         ENDPROC       _DELAYX00MS
  -------         ENDMOD        DELAY

  -------         MODULE        OLED
  C:0000H         SYMBOL        _ICE_DUMMY_
  C:0A75H         PUBLIC        _OLED_Fill
  C:090BH         PUBLIC        _OLED_Write
  C:06DBH         PUBLIC        OLED_Init
  C:07CDH         PUBLIC        _OLED_P8x16Str
  X:0000H         PUBLIC        F8X16
  C:0B2BH         SYMBOL        _?ix1000
  C:0B2EH         SYMBOL        _?ix1001
  C:0A9BH         PUBLIC        _OLED_Set_Pos
  -------         PROC          _OLED_P8X16STR
  D:0008H         SYMBOL        x
BL51 BANKED LINKER/LOCATER V6.22                                                      06/26/2020  23:01:04  PAGE 8


  D:0009H         SYMBOL        y
  D:000AH         SYMBOL        ch
  -------         DO            
  D:000DH         SYMBOL        c
  D:000EH         SYMBOL        i
  D:000FH         SYMBOL        j
  -------         ENDDO         
  C:07CDH         LINE#         99
  C:07D7H         LINE#         100
  C:07D7H         LINE#         101
  C:07DEH         LINE#         102
  C:07F2H         LINE#         103
  C:07F2H         LINE#         104
  C:07F6H         LINE#         105
  C:07FDH         LINE#         106
  C:07FDH         LINE#         107
  C:0800H         LINE#         108
  C:0802H         LINE#         109
  C:0802H         LINE#         110
  C:0809H         LINE#         111
  C:080CH         LINE#         112
  C:0837H         LINE#         113
  C:0840H         LINE#         114
  C:0843H         LINE#         115
  C:086EH         LINE#         116
  C:0874H         LINE#         117
  C:0876H         LINE#         118
  C:0879H         LINE#         119
  -------         ENDPROC       _OLED_P8X16STR
  -------         PROC          OLED_INIT
  C:06DBH         LINE#         121
  C:06DBH         LINE#         122
  C:06DBH         LINE#         123
  C:06E2H         LINE#         124
  C:06E9H         LINE#         125
  C:06F0H         LINE#         126
  C:06F7H         LINE#         127
  C:06FEH         LINE#         128
  C:0705H         LINE#         129
  C:070CH         LINE#         130
  C:0713H         LINE#         131
  C:071AH         LINE#         132
  C:0721H         LINE#         133
  C:0728H         LINE#         134
  C:072FH         LINE#         135
  C:0736H         LINE#         136
  C:073DH         LINE#         137
  C:0744H         LINE#         138
  C:074BH         LINE#         139
  C:0752H         LINE#         140
  C:0759H         LINE#         141
  C:0760H         LINE#         142
  C:0767H         LINE#         143
  C:076EH         LINE#         144
  C:0775H         LINE#         145
  C:077CH         LINE#         146
  C:0783H         LINE#         147
BL51 BANKED LINKER/LOCATER V6.22                                                      06/26/2020  23:01:04  PAGE 9


  C:078AH         LINE#         148
  C:0791H         LINE#         149
  C:0798H         LINE#         150
  C:079FH         LINE#         152
  C:07A4H         LINE#         153
  C:07A9H         LINE#         154
  C:07AEH         LINE#         155
  C:07B3H         LINE#         156
  C:07B8H         LINE#         157
  C:07BDH         LINE#         158
  C:07C2H         LINE#         159
  C:07C7H         LINE#         160
  -------         ENDPROC       OLED_INIT
  -------         PROC          _OLED_FILL
  D:0007H         SYMBOL        y
  -------         DO            
  D:0008H         SYMBOL        n
  -------         ENDDO         
  C:0A75H         LINE#         163
  C:0A75H         LINE#         164
  C:0A75H         LINE#         166
  C:0A79H         LINE#         167
  C:0A80H         LINE#         168
  C:0A87H         LINE#         169
  C:0A8AH         LINE#         170
  C:0A9AH         LINE#         171
  -------         ENDPROC       _OLED_FILL
  -------         PROC          _OLED_SET_POS
  D:0010H         SYMBOL        x
  D:0005H         SYMBOL        y
  C:0A9BH         LINE#         173
  C:0A9DH         LINE#         174
  C:0A9DH         LINE#         175
  C:0AA1H         LINE#         176
  C:0AB0H         LINE#         177
  -------         ENDPROC       _OLED_SET_POS
  -------         PROC          L?0022
  -------         ENDPROC       L?0022
  -------         PROC          _OLED_WRITE
  D:0011H         SYMBOL        x
  D:0012H         SYMBOL        y
  -------         DO            
  D:0013H         SYMBOL        array_1
  D:0016H         SYMBOL        array_2
  -------         ENDDO         
  C:090BH         LINE#         180
  C:090FH         LINE#         181
  C:090FH         LINE#         182
  C:0922H         LINE#         183
  C:0935H         LINE#         184
  C:0938H         LINE#         185
  C:093BH         LINE#         186
  C:0940H         LINE#         187
  C:0940H         LINE#         188
  C:0946H         LINE#         189
  C:0948H         LINE#         190
  C:094DH         LINE#         191
BL51 BANKED LINKER/LOCATER V6.22                                                      06/26/2020  23:01:04  PAGE 10


  C:094DH         LINE#         192
  C:0958H         LINE#         193
  C:0958H         LINE#         194
  -------         ENDPROC       _OLED_WRITE
  -------         ENDMOD        OLED

  -------         MODULE        ?C?COPY
  C:0688H         PUBLIC        ?C?COPY
  -------         ENDMOD        ?C?COPY

  -------         MODULE        ?C?CLDOPTR
  C:06AEH         PUBLIC        ?C?CLDOPTR
  -------         ENDMOD        ?C?CLDOPTR

*** WARNING L16: UNCALLED SEGMENT, IGNORED FOR OVERLAY PROCESS
    SEGMENT: ?PR?IIC_READ_BIT?I2C

*** WARNING L16: UNCALLED SEGMENT, IGNORED FOR OVERLAY PROCESS
    SEGMENT: ?PR?_DELAYXMS?DELAY

Program Size: data=37.0 xdata=1456 code=2865
LINK/LOCATE RUN COMPLETE.  2 WARNING(S),  0 ERROR(S)
